; Function Attrs: nounwind uwtable
define range(i32 -101, 1) i32 @IDAAdjReInit(ptr noundef %0) local_unnamed_addr #0 {
  %2 = icmp eq ptr %0, null
  br i1 %2, label %3, label %4

3:                                                ; preds = %1
  tail call void (ptr, i32, ptr, ptr, ptr, ...) @IDAProcessError(ptr noundef null, i32 noundef -20, ptr noundef nonnull @.str, ptr noundef nonnull @.str.6, ptr noundef nonnull @.str.2) #9
  br label %18

4:                                                ; preds = %1
  %5 = getelementptr inbounds nuw i8, ptr %0, i64 1824
  %6 = load i32, ptr %5, align 8, !tbaa !46
  %7 = icmp eq i32 %6, 0
  br i1 %7, label %8, label %9

8:                                                ; preds = %4
  tail call void (ptr, i32, ptr, ptr, ptr, ...) @IDAProcessError(ptr noundef nonnull %0, i32 noundef -101, ptr noundef nonnull @.str, ptr noundef nonnull @.str.6, ptr noundef nonnull @.str.7) #9
  br label %18

9:                                                ; preds = %4
  %10 = getelementptr inbounds nuw i8, ptr %0, i64 1816
  %11 = load ptr, ptr %10, align 8, !tbaa !3
  %12 = getelementptr inbounds nuw i8, ptr %11, i64 64
  %13 = load ptr, ptr %12, align 8, !tbaa !103
  %.not14 = icmp eq ptr %13, null
  br i1 %.not14, label %._crit_edge, label %.lr.ph

.lr.ph:                                           ; preds = %9, %.lr.ph
  tail call fastcc void @IDAAckpntDelete(ptr noundef nonnull %12)
  %14 = load ptr, ptr %12, align 8, !tbaa !103
  %.not = icmp eq ptr %14, null
  br i1 %.not, label %._crit_edge, label %.lr.ph, !llvm.loop !104

._crit_edge:                                      ; preds = %.lr.ph, %9
  %15 = getelementptr inbounds nuw i8, ptr %11, i64 16
  tail call void @llvm.memset.p0.i64(ptr noundef nonnull align 8 dereferenceable(20) %12, i8 0, i64 20, i1 false)
  store i32 1, ptr %15, align 8, !tbaa !42
  %16 = getelementptr inbounds nuw i8, ptr %11, i64 20
  store i32 0, ptr %16, align 4, !tbaa !43
  %17 = getelementptr inbounds nuw i8, ptr %11, i64 56
  store i32 1, ptr %17, align 8, !tbaa !44
  br label %18

18:                                               ; preds = %._crit_edge, %8, %3
  %.0 = phi i32 [ -20, %3 ], [ -101, %8 ], [ 0, %._crit_edge ]
  ret i32 %.0
}